target datalayout = "e-m:e-p270:32:32-p271:32:32-p272:64:64-i64:64-i128:128-f80:128-n8:16:32:64-S128"
target triple = "x86_64-pc-linux-gnu"

%struct.mbedtls_hmac_drbg_context = type { %struct.mbedtls_md_context_t, [64 x i8], i32, i64, i32, i32, ptr, ptr }
%struct.mbedtls_md_context_t = type { ptr, ptr, ptr }

@.str.2 = private unnamed_addr constant [27 x i8] c"  HMAC_DRBG (PR = True) : \00", align 1
@test_offset = internal global i64 0, align 8
@entropy_pr = internal constant [56 x i8] c"\A0\C9\ABX\F1\E2\E5\A4\DE>\BDO\F7>\9C[d\EF\D8\CA\02\8C\F8\11H\A5\84\FEi\ABZ\EEB\AAMB\17`\99\D4^\13\97\DC@M\86\A3{\F5YTuiQ\E4", align 16
@.str.3 = private unnamed_addr constant [8 x i8] c"failed\0A\00", align 1
@result_pr = internal constant [80 x i8] c"\9A\00\A2\D0\0E\D5\9B\FE1\EC\B19\9B`\81H\D1\96\9D%\0D<\1E\94\10\10\98\12\93%\CA\B8\FC\CC-Ts\19p\C0\10z\A4\89%\19\95^K\C6\00\1D\7FNj+\F8\A3\01\ABF\05\\\09\A6q\88\F1\A7@\EE\F3\E1\\\02\9BD\AF\03D", align 16
@.str.4 = private unnamed_addr constant [8 x i8] c"passed\0A\00", align 1
@.str.5 = private unnamed_addr constant [28 x i8] c"  HMAC_DRBG (PR = False) : \00", align 1
@entropy_nopr = internal constant [40 x i8] c"y4\9B\BF|\DD\A5y\95W\86f!\C9\13\83\11Fs:\BF\8C5\C8\C7![[\96\C4\8E\9B3\8Ct\E3\E9\9D\FE\DF", align 16
@result_nopr = internal constant [80 x i8] c"\C6\A1j\B8\D4 po\0F4\AB\7F\ECZ\DC\A9\D8\CA:\13>\15\9C\A6\ACC\C6\F8\A2\BE\22\83JL\0A\0A\FF\B1\0Dq\94\F1\C1\A5\CFs\22\EC\1A\E0\96N\D4\BF\12'F\E0\87\FD\B5\B3\E9\1B4\93\D5\BB\98\FA\EDI\E8_\13\0F\C8\A4Y\B7", align 16
@.str.6 = private unnamed_addr constant [2 x i8] c"\0A\00", align 1

; Function Attrs: nounwind uwtable
define hidden i32 @mbedtls_hmac_drbg_random(ptr noundef %0, ptr noundef %1, i64 noundef %2) #0 {
  %4 = alloca ptr, align 8
  %5 = alloca ptr, align 8
  %6 = alloca i64, align 8
  %7 = alloca i32, align 4
  %8 = alloca ptr, align 8
  store ptr %0, ptr %4, align 8, !tbaa !27
  store ptr %1, ptr %5, align 8, !tbaa !14
  store i64 %2, ptr %6, align 8, !tbaa !16
  call void @llvm.lifetime.start.p0(i64 4, ptr %7) #7
  store i32 -110, ptr %7, align 4, !tbaa !19
  call void @llvm.lifetime.start.p0(i64 8, ptr %8) #7
  %9 = load ptr, ptr %4, align 8, !tbaa !27
  store ptr %9, ptr %8, align 8, !tbaa !3
  %10 = load ptr, ptr %8, align 8, !tbaa !3
  %11 = load ptr, ptr %5, align 8, !tbaa !14
  %12 = load i64, ptr %6, align 8, !tbaa !16
  %13 = call i32 @mbedtls_hmac_drbg_random_with_add(ptr noundef %10, ptr noundef %11, i64 noundef %12, ptr noundef null, i64 noundef 0)
  store i32 %13, ptr %7, align 4, !tbaa !19
  %14 = load i32, ptr %7, align 4, !tbaa !19
  call void @llvm.lifetime.end.p0(i64 8, ptr %8) #7
  call void @llvm.lifetime.end.p0(i64 4, ptr %7) #7
  ret i32 %14
}

; Function Attrs: nounwind uwtable
define hidden void @mbedtls_hmac_drbg_set_prediction_resistance(ptr noundef %0, i32 noundef %1) #0 {
  %3 = alloca ptr, align 8
  %4 = alloca i32, align 4
  store ptr %0, ptr %3, align 8, !tbaa !3
  store i32 %1, ptr %4, align 4, !tbaa !19
  %5 = load i32, ptr %4, align 4, !tbaa !19
  %6 = load ptr, ptr %3, align 8, !tbaa !3
  %7 = getelementptr inbounds nuw %struct.mbedtls_hmac_drbg_context, ptr %6, i32 0, i32 4
  store i32 %5, ptr %7, align 8, !tbaa !28
  ret void
}

; Function Attrs: nounwind uwtable
define hidden void @mbedtls_hmac_drbg_init(ptr noundef %0) #0 {
  %2 = alloca ptr, align 8
  store ptr %0, ptr %2, align 8, !tbaa !3
  %3 = load ptr, ptr %2, align 8, !tbaa !3
  call void @llvm.memset.p0.i64(ptr align 8 %3, i8 0, i64 128, i1 false)
  %4 = load ptr, ptr %2, align 8, !tbaa !3
  %5 = getelementptr inbounds nuw %struct.mbedtls_hmac_drbg_context, ptr %4, i32 0, i32 5
  store i32 10000, ptr %5, align 4, !tbaa !8
  ret void
}

; Function Attrs: nounwind uwtable
define hidden i32 @mbedtls_hmac_drbg_self_test(i32 noundef %0) #0 {
  %2 = alloca i32, align 4
  %3 = alloca i32, align 4
  %4 = alloca %struct.mbedtls_hmac_drbg_context, align 8
  %5 = alloca [80 x i8], align 16
  %6 = alloca ptr, align 8
  %7 = alloca i32, align 4
  store i32 %0, ptr %3, align 4, !tbaa !19
  call void @llvm.lifetime.start.p0(i64 128, ptr %4) #7
  call void @llvm.lifetime.start.p0(i64 80, ptr %5) #7
  call void @llvm.lifetime.start.p0(i64 8, ptr %6) #7
  %8 = call ptr @mbedtls_md_info_from_type(i32 noundef 5)
  store ptr %8, ptr %6, align 8, !tbaa !22
  call void @mbedtls_hmac_drbg_init(ptr noundef %4)
  %9 = load i32, ptr %3, align 4, !tbaa !19
  %10 = icmp ne i32 %9, 0
  br i1 %10, label %11, label %13

11:                                               ; preds = %1
  %12 = call i32 (ptr, ...) @printf(ptr noundef @.str.2)
  br label %13

13:                                               ; preds = %11, %1
  store i64 0, ptr @test_offset, align 8, !tbaa !16
  %14 = load ptr, ptr %6, align 8, !tbaa !22
  %15 = call i32 @mbedtls_hmac_drbg_seed(ptr noundef %4, ptr noundef %14, ptr noundef @hmac_drbg_self_test_entropy, ptr noundef @entropy_pr, ptr noundef null, i64 noundef 0)
  %16 = icmp ne i32 %15, 0
  br i1 %16, label %17, label %23

17:                                               ; preds = %13
  %18 = load i32, ptr %3, align 4, !tbaa !19
  %19 = icmp ne i32 %18, 0
  br i1 %19, label %20, label %22

20:                                               ; preds = %17
  %21 = call i32 (ptr, ...) @printf(ptr noundef @.str.3)
  br label %22

22:                                               ; preds = %20, %17
  store i32 1, ptr %2, align 4
  store i32 1, ptr %7, align 4
  br label %123

23:                                               ; preds = %13
  call void @mbedtls_hmac_drbg_set_prediction_resistance(ptr noundef %4, i32 noundef 1)
  %24 = getelementptr inbounds [80 x i8], ptr %5, i64 0, i64 0
  %25 = call i32 @mbedtls_hmac_drbg_random(ptr noundef %4, ptr noundef %24, i64 noundef 80)
  %26 = icmp ne i32 %25, 0
  br i1 %26, label %27, label %33

27:                                               ; preds = %23
  %28 = load i32, ptr %3, align 4, !tbaa !19
  %29 = icmp ne i32 %28, 0
  br i1 %29, label %30, label %32

30:                                               ; preds = %27
  %31 = call i32 (ptr, ...) @printf(ptr noundef @.str.3)
  br label %32

32:                                               ; preds = %30, %27
  store i32 1, ptr %2, align 4
  store i32 1, ptr %7, align 4
  br label %123

33:                                               ; preds = %23
  %34 = getelementptr inbounds [80 x i8], ptr %5, i64 0, i64 0
  %35 = call i32 @mbedtls_hmac_drbg_random(ptr noundef %4, ptr noundef %34, i64 noundef 80)
  %36 = icmp ne i32 %35, 0
  br i1 %36, label %37, label %43

37:                                               ; preds = %33
  %38 = load i32, ptr %3, align 4, !tbaa !19
  %39 = icmp ne i32 %38, 0
  br i1 %39, label %40, label %42

40:                                               ; preds = %37
  %41 = call i32 (ptr, ...) @printf(ptr noundef @.str.3)
  br label %42

42:                                               ; preds = %40, %37
  store i32 1, ptr %2, align 4
  store i32 1, ptr %7, align 4
  br label %123

43:                                               ; preds = %33
  %44 = getelementptr inbounds [80 x i8], ptr %5, i64 0, i64 0
  %45 = call i32 @memcmp(ptr noundef %44, ptr noundef @result_pr, i64 noundef 80) #8
  %46 = icmp ne i32 %45, 0
  br i1 %46, label %47, label %53

47:                                               ; preds = %43
  %48 = load i32, ptr %3, align 4, !tbaa !19
  %49 = icmp ne i32 %48, 0
  br i1 %49, label %50, label %52

50:                                               ; preds = %47
  %51 = call i32 (ptr, ...) @printf(ptr noundef @.str.3)
  br label %52

52:                                               ; preds = %50, %47
  store i32 1, ptr %2, align 4
  store i32 1, ptr %7, align 4
  br label %123

53:                                               ; preds = %43
  call void @mbedtls_hmac_drbg_free(ptr noundef %4)
  call void @mbedtls_hmac_drbg_free(ptr noundef %4)
  %54 = load i32, ptr %3, align 4, !tbaa !19
  %55 = icmp ne i32 %54, 0
  br i1 %55, label %56, label %58

56:                                               ; preds = %53
  %57 = call i32 (ptr, ...) @printf(ptr noundef @.str.4)
  br label %58

58:                                               ; preds = %56, %53
  %59 = load i32, ptr %3, align 4, !tbaa !19
  %60 = icmp ne i32 %59, 0
  br i1 %60, label %61, label %63

61:                                               ; preds = %58
  %62 = call i32 (ptr, ...) @printf(ptr noundef @.str.5)
  br label %63

63:                                               ; preds = %61, %58
  call void @mbedtls_hmac_drbg_init(ptr noundef %4)
  store i64 0, ptr @test_offset, align 8, !tbaa !16
  %64 = load ptr, ptr %6, align 8, !tbaa !22
  %65 = call i32 @mbedtls_hmac_drbg_seed(ptr noundef %4, ptr noundef %64, ptr noundef @hmac_drbg_self_test_entropy, ptr noundef @entropy_nopr, ptr noundef null, i64 noundef 0)
  %66 = icmp ne i32 %65, 0
  br i1 %66, label %67, label %73

67:                                               ; preds = %63
  %68 = load i32, ptr %3, align 4, !tbaa !19
  %69 = icmp ne i32 %68, 0
  br i1 %69, label %70, label %72

70:                                               ; preds = %67
  %71 = call i32 (ptr, ...) @printf(ptr noundef @.str.3)
  br label %72

72:                                               ; preds = %70, %67
  store i32 1, ptr %2, align 4
  store i32 1, ptr %7, align 4
  br label %123

73:                                               ; preds = %63
  %74 = call i32 @mbedtls_hmac_drbg_reseed(ptr noundef %4, ptr noundef null, i64 noundef 0)
  %75 = icmp ne i32 %74, 0
  br i1 %75, label %76, label %82

76:                                               ; preds = %73
  %77 = load i32, ptr %3, align 4, !tbaa !19
  %78 = icmp ne i32 %77, 0
  br i1 %78, label %79, label %81

79:                                               ; preds = %76
  %80 = call i32 (ptr, ...) @printf(ptr noundef @.str.3)
  br label %81

81:                                               ; preds = %79, %76
  store i32 1, ptr %2, align 4
  store i32 1, ptr %7, align 4
  br label %123

82:                                               ; preds = %73
  %83 = getelementptr inbounds [80 x i8], ptr %5, i64 0, i64 0
  %84 = call i32 @mbedtls_hmac_drbg_random(ptr noundef %4, ptr noundef %83, i64 noundef 80)
  %85 = icmp ne i32 %84, 0
  br i1 %85, label %86, label %92

86:                                               ; preds = %82
  %87 = load i32, ptr %3, align 4, !tbaa !19
  %88 = icmp ne i32 %87, 0
  br i1 %88, label %89, label %91

89:                                               ; preds = %86
  %90 = call i32 (ptr, ...) @printf(ptr noundef @.str.3)
  br label %91

91:                                               ; preds = %89, %86
  store i32 1, ptr %2, align 4
  store i32 1, ptr %7, align 4
  br label %123

92:                                               ; preds = %82
  %93 = getelementptr inbounds [80 x i8], ptr %5, i64 0, i64 0
  %94 = call i32 @mbedtls_hmac_drbg_random(ptr noundef %4, ptr noundef %93, i64 noundef 80)
  %95 = icmp ne i32 %94, 0
  br i1 %95, label %96, label %102

96:                                               ; preds = %92
  %97 = load i32, ptr %3, align 4, !tbaa !19
  %98 = icmp ne i32 %97, 0
  br i1 %98, label %99, label %101

99:                                               ; preds = %96
  %100 = call i32 (ptr, ...) @printf(ptr noundef @.str.3)
  br label %101

101:                                              ; preds = %99, %96
  store i32 1, ptr %2, align 4
  store i32 1, ptr %7, align 4
  br label %123

102:                                              ; preds = %92
  %103 = getelementptr inbounds [80 x i8], ptr %5, i64 0, i64 0
  %104 = call i32 @memcmp(ptr noundef %103, ptr noundef @result_nopr, i64 noundef 80) #8
  %105 = icmp ne i32 %104, 0
  br i1 %105, label %106, label %112

106:                                              ; preds = %102
  %107 = load i32, ptr %3, align 4, !tbaa !19
  %108 = icmp ne i32 %107, 0
  br i1 %108, label %109, label %111

109:                                              ; preds = %106
  %110 = call i32 (ptr, ...) @printf(ptr noundef @.str.3)
  br label %111

111:                                              ; preds = %109, %106
  store i32 1, ptr %2, align 4
  store i32 1, ptr %7, align 4
  br label %123

112:                                              ; preds = %102
  call void @mbedtls_hmac_drbg_free(ptr noundef %4)
  call void @mbedtls_hmac_drbg_free(ptr noundef %4)
  %113 = load i32, ptr %3, align 4, !tbaa !19
  %114 = icmp ne i32 %113, 0
  br i1 %114, label %115, label %117

115:                                              ; preds = %112
  %116 = call i32 (ptr, ...) @printf(ptr noundef @.str.4)
  br label %117

117:                                              ; preds = %115, %112
  %118 = load i32, ptr %3, align 4, !tbaa !19
  %119 = icmp ne i32 %118, 0
  br i1 %119, label %120, label %122

120:                                              ; preds = %117
  %121 = call i32 (ptr, ...) @printf(ptr noundef @.str.6)
  br label %122

122:                                              ; preds = %120, %117
  store i32 0, ptr %2, align 4
  store i32 1, ptr %7, align 4
  br label %123

123:                                              ; preds = %122, %111, %101, %91, %81, %72, %52, %42, %32, %22
  call void @llvm.lifetime.end.p0(i64 8, ptr %6) #7
  call void @llvm.lifetime.end.p0(i64 80, ptr %5) #7
  call void @llvm.lifetime.end.p0(i64 128, ptr %4) #7
  %124 = load i32, ptr %2, align 4
  ret i32 %124
}