; Function Attrs: nounwind uwtable
define hidden range(i32 0, 2) i32 @mbedtls_hmac_drbg_self_test(i32 noundef %0) local_unnamed_addr #2 {
  %2 = alloca [384 x i8], align 16
  %3 = alloca %struct.mbedtls_hmac_drbg_context, align 8
  %4 = alloca [80 x i8], align 16
  call void @llvm.lifetime.start.p0(i64 128, ptr nonnull %3) #12
  call void @llvm.lifetime.start.p0(i64 80, ptr nonnull %4) #12
  %5 = tail call ptr @mbedtls_md_info_from_type(i32 noundef 5) #12
  call void @llvm.memset.p0.i64(ptr noundef nonnull align 8 dereferenceable(128) %3, i8 0, i64 128, i1 false)
  %6 = getelementptr inbounds nuw i8, ptr %3, i64 108
  store i32 10000, ptr %6, align 4, !tbaa !3
  %.not = icmp eq i32 %0, 0
  br i1 %.not, label %9, label %7

7:                                                ; preds = %1
  %8 = tail call i32 (ptr, ...) @printf(ptr noundef nonnull dereferenceable(1) @.str.2)
  br label %9

9:                                                ; preds = %7, %1
  store i64 0, ptr @test_offset, align 8, !tbaa !21
  %10 = call i32 @mbedtls_md_setup(ptr noundef nonnull %3, ptr noundef %5, i32 noundef 1) #12
  %.not.i = icmp eq i32 %10, 0
  br i1 %.not.i, label %11, label %mbedtls_hmac_drbg_seed.exit.thread

11:                                               ; preds = %9
  %12 = call zeroext i8 @mbedtls_md_get_size(ptr noundef %5) #12
  %13 = zext i8 %12 to i64
  %14 = getelementptr inbounds nuw i8, ptr %3, i64 24
  %15 = call i32 @mbedtls_md_hmac_starts(ptr noundef nonnull %3, ptr noundef nonnull %14, i64 noundef %13) #12
  %.not25.i = icmp eq i32 %15, 0
  br i1 %.not25.i, label %16, label %mbedtls_hmac_drbg_seed.exit.thread

16:                                               ; preds = %11
  call void @llvm.memset.p0.i64(ptr nonnull align 8 %14, i8 1, i64 %13, i1 false)
  %17 = getelementptr inbounds nuw i8, ptr %3, i64 112
  store ptr @hmac_drbg_self_test_entropy, ptr %17, align 8, !tbaa !17
  %18 = getelementptr inbounds nuw i8, ptr %3, i64 120
  store ptr @entropy_pr, ptr %18, align 8, !tbaa !18
  %19 = getelementptr inbounds nuw i8, ptr %3, i64 96
  %20 = load i64, ptr %19, align 8, !tbaa !16
  %21 = icmp eq i64 %20, 0
  br i1 %21, label %22, label %27

22:                                               ; preds = %16
  %23 = icmp ult i8 %12, 21
  %24 = icmp ult i8 %12, 29
  %25 = select i1 %24, i64 24, i64 32
  %26 = select i1 %23, i64 16, i64 %25
  store i64 %26, ptr %19, align 8, !tbaa !16
  br label %27

27:                                               ; preds = %22, %16
  %28 = phi i64 [ %26, %22 ], [ %20, %16 ]
  call void @llvm.lifetime.start.p0(i64 384, ptr nonnull %2) #12
  %29 = mul i64 %28, 3
  %30 = icmp ugt i64 %29, 769
  br i1 %30, label %mbedtls_hmac_drbg_seed.exit.thread.sink.split, label %31

31:                                               ; preds = %27
  call void @llvm.memset.p0.i64(ptr noundef nonnull align 16 dereferenceable(384) %2, i8 0, i64 384, i1 false)
  %32 = load i64, ptr @test_offset, align 8, !tbaa !21
  %33 = getelementptr inbounds nuw i8, ptr @entropy_pr, i64 %32
  call void @llvm.memcpy.p0.p0.i64(ptr nonnull align 16 %2, ptr nonnull readonly align 1 %33, i64 %28, i1 false)
  %34 = add i64 %32, %28
  %35 = getelementptr inbounds nuw i8, ptr %2, i64 %28
  %36 = lshr i64 %28, 1
  %37 = getelementptr inbounds nuw i8, ptr @entropy_pr, i64 %34
  call void @llvm.memcpy.p0.p0.i64(ptr nonnull align 1 %35, ptr nonnull readonly align 1 %37, i64 %36, i1 false)
  %38 = add i64 %34, %36
  store i64 %38, ptr @test_offset, align 8, !tbaa !21
  %39 = add i64 %36, %28
  %40 = call i32 @mbedtls_hmac_drbg_update(ptr noundef nonnull %3, ptr noundef nonnull %2, i64 noundef %39)
  %.not41.i.i = icmp eq i32 %40, 0
  br i1 %.not41.i.i, label %42, label %mbedtls_hmac_drbg_seed.exit

mbedtls_hmac_drbg_seed.exit:                      ; preds = %31
  call void @mbedtls_platform_zeroize(ptr noundef nonnull %2, i64 noundef %39) #12
  br label %mbedtls_hmac_drbg_seed.exit.thread.sink.split

mbedtls_hmac_drbg_seed.exit.thread.sink.split:    ; preds = %27, %mbedtls_hmac_drbg_seed.exit
  call void @llvm.lifetime.end.p0(i64 384, ptr nonnull %2) #12
  br label %mbedtls_hmac_drbg_seed.exit.thread

mbedtls_hmac_drbg_seed.exit.thread:               ; preds = %mbedtls_hmac_drbg_seed.exit.thread.sink.split, %11, %9
  br i1 %.not, label %.critedge37, label %41

41:                                               ; preds = %mbedtls_hmac_drbg_seed.exit.thread
  %puts35 = call i32 @puts(ptr nonnull dereferenceable(1) @str.10)
  br label %.critedge37

42:                                               ; preds = %31
  %43 = getelementptr inbounds nuw i8, ptr %3, i64 88
  store i32 1, ptr %43, align 8, !tbaa !19
  call void @mbedtls_platform_zeroize(ptr noundef nonnull %2, i64 noundef %39) #12
  call void @llvm.lifetime.end.p0(i64 384, ptr nonnull %2) #12
  %44 = getelementptr inbounds nuw i8, ptr %3, i64 104
  store i32 1, ptr %44, align 8, !tbaa !20
  %45 = call i32 @mbedtls_hmac_drbg_random_with_add(ptr noundef nonnull %3, ptr noundef nonnull %4, i64 noundef 80, ptr noundef null, i64 noundef 0)
  %.not17 = icmp eq i32 %45, 0
  br i1 %.not17, label %48, label %46

46:                                               ; preds = %42
  br i1 %.not, label %.critedge37, label %47

47:                                               ; preds = %46
  %puts34 = call i32 @puts(ptr nonnull dereferenceable(1) @str.10)
  br label %.critedge37

48:                                               ; preds = %42
  %49 = call i32 @mbedtls_hmac_drbg_random_with_add(ptr noundef nonnull %3, ptr noundef nonnull %4, i64 noundef 80, ptr noundef null, i64 noundef 0)
  %.not18 = icmp eq i32 %49, 0
  br i1 %.not18, label %52, label %50

50:                                               ; preds = %48
  br i1 %.not, label %.critedge37, label %51

51:                                               ; preds = %50
  %puts33 = call i32 @puts(ptr nonnull dereferenceable(1) @str.10)
  br label %.critedge37

52:                                               ; preds = %48
  %bcmp = call i32 @bcmp(ptr noundef nonnull dereferenceable(80) %4, ptr noundef nonnull dereferenceable(80) @result_pr, i64 80)
  %.not19 = icmp eq i32 %bcmp, 0
  br i1 %.not19, label %55, label %53

53:                                               ; preds = %52
  br i1 %.not, label %.critedge37, label %54

54:                                               ; preds = %53
  %puts32 = call i32 @puts(ptr nonnull dereferenceable(1) @str.10)
  br label %.critedge37

55:                                               ; preds = %52
  call void @mbedtls_hmac_drbg_free(ptr noundef nonnull %3)
  call void @mbedtls_hmac_drbg_free(ptr noundef nonnull %3)
  br i1 %.not, label %.critedge, label %56

56:                                               ; preds = %55
  %puts = call i32 @puts(ptr nonnull dereferenceable(1) @str.1)
  %57 = call i32 (ptr, ...) @printf(ptr noundef nonnull dereferenceable(1) @.str.5)
  br label %.critedge

.critedge:                                        ; preds = %55, %56
  call void @llvm.memset.p0.i64(ptr noundef nonnull align 8 dereferenceable(128) %3, i8 0, i64 128, i1 false)
  store i32 10000, ptr %6, align 4, !tbaa !3
  store i64 0, ptr @test_offset, align 8, !tbaa !21
  %58 = call i32 @mbedtls_hmac_drbg_seed(ptr noundef nonnull %3, ptr noundef %5, ptr noundef nonnull @hmac_drbg_self_test_entropy, ptr noundef nonnull @entropy_nopr, ptr noundef null, i64 noundef 0)
  %.not20 = icmp eq i32 %58, 0
  br i1 %.not20, label %61, label %59

59:                                               ; preds = %.critedge
  br i1 %.not, label %.critedge37, label %60

60:                                               ; preds = %59
  %puts31 = call i32 @puts(ptr nonnull dereferenceable(1) @str.10)
  br label %.critedge37

61:                                               ; preds = %.critedge
  %62 = call i32 @mbedtls_hmac_drbg_reseed(ptr noundef nonnull %3, ptr noundef null, i64 noundef 0)
  %.not21 = icmp eq i32 %62, 0
  br i1 %.not21, label %65, label %63

63:                                               ; preds = %61
  br i1 %.not, label %.critedge37, label %64

64:                                               ; preds = %63
  %puts30 = call i32 @puts(ptr nonnull dereferenceable(1) @str.10)
  br label %.critedge37

65:                                               ; preds = %61
  %66 = call i32 @mbedtls_hmac_drbg_random_with_add(ptr noundef nonnull %3, ptr noundef nonnull %4, i64 noundef 80, ptr noundef null, i64 noundef 0)
  %.not22 = icmp eq i32 %66, 0
  br i1 %.not22, label %69, label %67

67:                                               ; preds = %65
  br i1 %.not, label %.critedge37, label %68

68:                                               ; preds = %67
  %puts29 = call i32 @puts(ptr nonnull dereferenceable(1) @str.10)
  br label %.critedge37

69:                                               ; preds = %65
  %70 = call i32 @mbedtls_hmac_drbg_random_with_add(ptr noundef nonnull %3, ptr noundef nonnull %4, i64 noundef 80, ptr noundef null, i64 noundef 0)
  %.not23 = icmp eq i32 %70, 0
  br i1 %.not23, label %73, label %71

71:                                               ; preds = %69
  br i1 %.not, label %.critedge37, label %72

72:                                               ; preds = %71
  %puts28 = call i32 @puts(ptr nonnull dereferenceable(1) @str.10)
  br label %.critedge37

73:                                               ; preds = %69
  %bcmp24 = call i32 @bcmp(ptr noundef nonnull dereferenceable(80) %4, ptr noundef nonnull dereferenceable(80) @result_nopr, i64 80)
  %.not25 = icmp eq i32 %bcmp24, 0
  br i1 %.not25, label %76, label %74

74:                                               ; preds = %73
  br i1 %.not, label %.critedge37, label %75

75:                                               ; preds = %74
  %puts27 = call i32 @puts(ptr nonnull dereferenceable(1) @str.10)
  br label %.critedge37

76:                                               ; preds = %73
  call void @mbedtls_hmac_drbg_free(ptr noundef nonnull %3)
  call void @mbedtls_hmac_drbg_free(ptr noundef nonnull %3)
  br i1 %.not, label %.critedge37, label %77

77:                                               ; preds = %76
  %puts26 = call i32 @puts(ptr nonnull dereferenceable(1) @str.1)
  %putchar = call i32 @putchar(i32 10)
  br label %.critedge37

.critedge37:                                      ; preds = %77, %76, %74, %75, %71, %72, %67, %68, %63, %64, %59, %60, %53, %54, %50, %51, %46, %47, %mbedtls_hmac_drbg_seed.exit.thread, %41
  %.0 = phi i32 [ 1, %41 ], [ 1, %mbedtls_hmac_drbg_seed.exit.thread ], [ 1, %47 ], [ 1, %46 ], [ 1, %51 ], [ 1, %50 ], [ 1, %54 ], [ 1, %53 ], [ 1, %60 ], [ 1, %59 ], [ 1, %64 ], [ 1, %63 ], [ 1, %68 ], [ 1, %67 ], [ 1, %72 ], [ 1, %71 ], [ 1, %75 ], [ 1, %74 ], [ 0, %76 ], [ 0, %77 ]
  call void @llvm.lifetime.end.p0(i64 80, ptr nonnull %4) #12
  call void @llvm.lifetime.end.p0(i64 128, ptr nonnull %3) #12
  ret i32 %.0
}